target datalayout = "e-m:e-p270:32:32-p271:32:32-p272:64:64-i64:64-i128:128-f80:128-n8:16:32:64-S128"
target triple = "x86_64-pc-linux-gnu"

%struct.H5VL_connector_t = type { ptr, i64, ptr, ptr }

@.str = private unnamed_addr constant [106 x i8] c"generated/home/dtcxzyw/WorkSpace/Projects/compilers/llvm-opt-benchmark/bench/hdf5/hdf5/src/H5VLcallback.c\00", align 1
@H5E_ARGS_g = external global i64, align 8
@H5E_BADTYPE_g = external global i64, align 8
@.str.1 = private unnamed_addr constant [23 x i8] c"not a VOL connector ID\00", align 1
@H5E_VOL_g = external global i64, align 8
@H5E_CANTINIT_g = external global i64, align 8
@H5E_BADVALUE_g = external global i64, align 8
@.str.17 = private unnamed_addr constant [15 x i8] c"invalid object\00", align 1
@__func__.H5VLdataset_read = private unnamed_addr constant [17 x i8] c"H5VLdataset_read\00", align 1
@.str.55 = private unnamed_addr constant [23 x i8] c"obj array not provided\00", align 1
@.str.56 = private unnamed_addr constant [31 x i8] c"mem_type_id array not provided\00", align 1
@.str.57 = private unnamed_addr constant [32 x i8] c"mem_space_id array not provided\00", align 1
@.str.58 = private unnamed_addr constant [33 x i8] c"file_space_id array not provided\00", align 1
@.str.59 = private unnamed_addr constant [23 x i8] c"buf array not provided\00", align 1
@.str.60 = private unnamed_addr constant [23 x i8] c"unable to read dataset\00", align 1

; Function Attrs: nounwind uwtable
define i32 @H5VLdataset_read(i64 noundef %0, ptr noundef %1, i64 noundef %2, ptr noundef %3, ptr noundef %4, ptr noundef %5, i64 noundef %6, ptr noundef %7, ptr noundef %8) #0 {
  %10 = alloca i64, align 8
  %11 = alloca ptr, align 8
  %12 = alloca i64, align 8
  %13 = alloca ptr, align 8
  %14 = alloca ptr, align 8
  %15 = alloca ptr, align 8
  %16 = alloca i64, align 8
  %17 = alloca ptr, align 8
  %18 = alloca ptr, align 8
  %19 = alloca ptr, align 8
  %20 = alloca i64, align 8
  %21 = alloca i32, align 4
  %22 = alloca i8, align 1
  store i64 %0, ptr %10, align 8, !tbaa !3
  store ptr %1, ptr %11, align 8, !tbaa !42
  store i64 %2, ptr %12, align 8, !tbaa !3
  store ptr %3, ptr %13, align 8, !tbaa !36
  store ptr %4, ptr %14, align 8, !tbaa !36
  store ptr %5, ptr %15, align 8, !tbaa !36
  store i64 %6, ptr %16, align 8, !tbaa !3
  store ptr %7, ptr %17, align 8, !tbaa !42
  store ptr %8, ptr %18, align 8, !tbaa !42
  call void @llvm.lifetime.start.p0(i64 8, ptr %19) #8
  call void @llvm.lifetime.start.p0(i64 8, ptr %20) #8
  call void @llvm.lifetime.start.p0(i64 4, ptr %21) #8
  store i32 0, ptr %21, align 4, !tbaa !7
  call void @llvm.lifetime.start.p0(i64 1, ptr %22) #8
  store i8 0, ptr %22, align 1, !tbaa !9
  %23 = load ptr, ptr %11, align 8, !tbaa !42
  %24 = icmp eq ptr null, %23
  br i1 %24, label %25, label %44

25:                                               ; preds = %9
  br label %26

26:                                               ; preds = %25
  br label %27

27:                                               ; preds = %26
  br label %28

28:                                               ; preds = %27
  %29 = load i64, ptr @H5E_ARGS_g, align 8, !tbaa !3
  %30 = load i64, ptr @H5E_BADVALUE_g, align 8, !tbaa !3
  %31 = call i32 (ptr, ptr, i32, i64, i64, ptr, ...) @H5E_printf_stack(ptr noundef @.str, ptr noundef @__func__.H5VLdataset_read, i32 noundef 2241, i64 noundef %29, i64 noundef %30, ptr noundef @.str.55)
  br label %32

32:                                               ; preds = %28
  br label %33

33:                                               ; preds = %32
  store i8 1, ptr %22, align 1, !tbaa !9
  %34 = load i8, ptr %22, align 1, !tbaa !9, !range !14, !noundef !15
  %35 = trunc i8 %34 to i1
  %36 = zext i1 %35 to i8
  store i8 %36, ptr %22, align 1, !tbaa !9
  br label %37

37:                                               ; preds = %33
  br label %38

38:                                               ; preds = %37
  br label %39

39:                                               ; preds = %38
  store i32 -1, ptr %21, align 4, !tbaa !7
  br label %223

40:                                               ; No predecessors!
  br label %41

41:                                               ; preds = %40
  br label %42

42:                                               ; preds = %41
  br label %43

43:                                               ; preds = %42
  br label %44

44:                                               ; preds = %43, %9
  store i64 1, ptr %20, align 8, !tbaa !3
  br label %45

45:                                               ; preds = %75, %44
  %46 = load i64, ptr %20, align 8, !tbaa !3
  %47 = load i64, ptr %10, align 8, !tbaa !3
  %48 = icmp ult i64 %46, %47
  br i1 %48, label %49, label %78

49:                                               ; preds = %45
  %50 = load ptr, ptr %11, align 8, !tbaa !42
  %51 = load i64, ptr %20, align 8, !tbaa !3
  %52 = getelementptr inbounds nuw ptr, ptr %50, i64 %51
  %53 = load ptr, ptr %52, align 8, !tbaa !42
  %54 = icmp eq ptr null, %53
  br i1 %54, label %55, label %74

55:                                               ; preds = %49
  br label %56

56:                                               ; preds = %55
  br label %57

57:                                               ; preds = %56
  br label %58

58:                                               ; preds = %57
  %59 = load i64, ptr @H5E_ARGS_g, align 8, !tbaa !3
  %60 = load i64, ptr @H5E_BADVALUE_g, align 8, !tbaa !3
  %61 = call i32 (ptr, ptr, i32, i64, i64, ptr, ...) @H5E_printf_stack(ptr noundef @.str, ptr noundef @__func__.H5VLdataset_read, i32 noundef 2244, i64 noundef %59, i64 noundef %60, ptr noundef @.str.17)
  br label %62

62:                                               ; preds = %58
  br label %63

63:                                               ; preds = %62
  store i8 1, ptr %22, align 1, !tbaa !9
  %64 = load i8, ptr %22, align 1, !tbaa !9, !range !14, !noundef !15
  %65 = trunc i8 %64 to i1
  %66 = zext i1 %65 to i8
  store i8 %66, ptr %22, align 1, !tbaa !9
  br label %67

67:                                               ; preds = %63
  br label %68

68:                                               ; preds = %67
  br label %69

69:                                               ; preds = %68
  store i32 -1, ptr %21, align 4, !tbaa !7
  br label %223

70:                                               ; No predecessors!
  br label %71

71:                                               ; preds = %70
  br label %72

72:                                               ; preds = %71
  br label %73

73:                                               ; preds = %72
  br label %74

74:                                               ; preds = %73, %49
  br label %75

75:                                               ; preds = %74
  %76 = load i64, ptr %20, align 8, !tbaa !3
  %77 = add i64 %76, 1
  store i64 %77, ptr %20, align 8, !tbaa !3
  br label %45, !llvm.loop !85

78:                                               ; preds = %45
  %79 = load ptr, ptr %13, align 8, !tbaa !36
  %80 = icmp eq ptr null, %79
  br i1 %80, label %81, label %100

81:                                               ; preds = %78
  br label %82

82:                                               ; preds = %81
  br label %83

83:                                               ; preds = %82
  br label %84

84:                                               ; preds = %83
  %85 = load i64, ptr @H5E_ARGS_g, align 8, !tbaa !3
  %86 = load i64, ptr @H5E_BADVALUE_g, align 8, !tbaa !3
  %87 = call i32 (ptr, ptr, i32, i64, i64, ptr, ...) @H5E_printf_stack(ptr noundef @.str, ptr noundef @__func__.H5VLdataset_read, i32 noundef 2246, i64 noundef %85, i64 noundef %86, ptr noundef @.str.56)
  br label %88

88:                                               ; preds = %84
  br label %89

89:                                               ; preds = %88
  store i8 1, ptr %22, align 1, !tbaa !9
  %90 = load i8, ptr %22, align 1, !tbaa !9, !range !14, !noundef !15
  %91 = trunc i8 %90 to i1
  %92 = zext i1 %91 to i8
  store i8 %92, ptr %22, align 1, !tbaa !9
  br label %93

93:                                               ; preds = %89
  br label %94

94:                                               ; preds = %93
  br label %95

95:                                               ; preds = %94
  store i32 -1, ptr %21, align 4, !tbaa !7
  br label %223

96:                                               ; No predecessors!
  br label %97

97:                                               ; preds = %96
  br label %98

98:                                               ; preds = %97
  br label %99

99:                                               ; preds = %98
  br label %100

100:                                              ; preds = %99, %78
  %101 = load ptr, ptr %14, align 8, !tbaa !36
  %102 = icmp eq ptr null, %101
  br i1 %102, label %103, label %122

103:                                              ; preds = %100
  br label %104

104:                                              ; preds = %103
  br label %105

105:                                              ; preds = %104
  br label %106

106:                                              ; preds = %105
  %107 = load i64, ptr @H5E_ARGS_g, align 8, !tbaa !3
  %108 = load i64, ptr @H5E_BADVALUE_g, align 8, !tbaa !3
  %109 = call i32 (ptr, ptr, i32, i64, i64, ptr, ...) @H5E_printf_stack(ptr noundef @.str, ptr noundef @__func__.H5VLdataset_read, i32 noundef 2248, i64 noundef %107, i64 noundef %108, ptr noundef @.str.57)
  br label %110

110:                                              ; preds = %106
  br label %111

111:                                              ; preds = %110
  store i8 1, ptr %22, align 1, !tbaa !9
  %112 = load i8, ptr %22, align 1, !tbaa !9, !range !14, !noundef !15
  %113 = trunc i8 %112 to i1
  %114 = zext i1 %113 to i8
  store i8 %114, ptr %22, align 1, !tbaa !9
  br label %115

115:                                              ; preds = %111
  br label %116

116:                                              ; preds = %115
  br label %117

117:                                              ; preds = %116
  store i32 -1, ptr %21, align 4, !tbaa !7
  br label %223

118:                                              ; No predecessors!
  br label %119

119:                                              ; preds = %118
  br label %120

120:                                              ; preds = %119
  br label %121

121:                                              ; preds = %120
  br label %122

122:                                              ; preds = %121, %100
  %123 = load ptr, ptr %15, align 8, !tbaa !36
  %124 = icmp eq ptr null, %123
  br i1 %124, label %125, label %144

125:                                              ; preds = %122
  br label %126

126:                                              ; preds = %125
  br label %127

127:                                              ; preds = %126
  br label %128

128:                                              ; preds = %127
  %129 = load i64, ptr @H5E_ARGS_g, align 8, !tbaa !3
  %130 = load i64, ptr @H5E_BADVALUE_g, align 8, !tbaa !3
  %131 = call i32 (ptr, ptr, i32, i64, i64, ptr, ...) @H5E_printf_stack(ptr noundef @.str, ptr noundef @__func__.H5VLdataset_read, i32 noundef 2250, i64 noundef %129, i64 noundef %130, ptr noundef @.str.58)
  br label %132

132:                                              ; preds = %128
  br label %133

133:                                              ; preds = %132
  store i8 1, ptr %22, align 1, !tbaa !9
  %134 = load i8, ptr %22, align 1, !tbaa !9, !range !14, !noundef !15
  %135 = trunc i8 %134 to i1
  %136 = zext i1 %135 to i8
  store i8 %136, ptr %22, align 1, !tbaa !9
  br label %137

137:                                              ; preds = %133
  br label %138

138:                                              ; preds = %137
  br label %139

139:                                              ; preds = %138
  store i32 -1, ptr %21, align 4, !tbaa !7
  br label %223

140:                                              ; No predecessors!
  br label %141

141:                                              ; preds = %140
  br label %142

142:                                              ; preds = %141
  br label %143

143:                                              ; preds = %142
  br label %144

144:                                              ; preds = %143, %122
  %145 = load ptr, ptr %17, align 8, !tbaa !42
  %146 = icmp eq ptr null, %145
  br i1 %146, label %147, label %166

147:                                              ; preds = %144
  br label %148

148:                                              ; preds = %147
  br label %149

149:                                              ; preds = %148
  br label %150

150:                                              ; preds = %149
  %151 = load i64, ptr @H5E_ARGS_g, align 8, !tbaa !3
  %152 = load i64, ptr @H5E_BADVALUE_g, align 8, !tbaa !3
  %153 = call i32 (ptr, ptr, i32, i64, i64, ptr, ...) @H5E_printf_stack(ptr noundef @.str, ptr noundef @__func__.H5VLdataset_read, i32 noundef 2252, i64 noundef %151, i64 noundef %152, ptr noundef @.str.59)
  br label %154

154:                                              ; preds = %150
  br label %155

155:                                              ; preds = %154
  store i8 1, ptr %22, align 1, !tbaa !9
  %156 = load i8, ptr %22, align 1, !tbaa !9, !range !14, !noundef !15
  %157 = trunc i8 %156 to i1
  %158 = zext i1 %157 to i8
  store i8 %158, ptr %22, align 1, !tbaa !9
  br label %159

159:                                              ; preds = %155
  br label %160

160:                                              ; preds = %159
  br label %161

161:                                              ; preds = %160
  store i32 -1, ptr %21, align 4, !tbaa !7
  br label %223

162:                                              ; No predecessors!
  br label %163

163:                                              ; preds = %162
  br label %164

164:                                              ; preds = %163
  br label %165

165:                                              ; preds = %164
  br label %166

166:                                              ; preds = %165, %144
  %167 = load i64, ptr %12, align 8, !tbaa !3
  %168 = call ptr @H5I_object_verify(i64 noundef %167, i32 noundef 9)
  store ptr %168, ptr %19, align 8, !tbaa !11
  %169 = icmp eq ptr null, %168
  br i1 %169, label %170, label %189

170:                                              ; preds = %166
  br label %171

171:                                              ; preds = %170
  br label %172

172:                                              ; preds = %171
  br label %173

173:                                              ; preds = %172
  %174 = load i64, ptr @H5E_ARGS_g, align 8, !tbaa !3
  %175 = load i64, ptr @H5E_BADTYPE_g, align 8, !tbaa !3
  %176 = call i32 (ptr, ptr, i32, i64, i64, ptr, ...) @H5E_printf_stack(ptr noundef @.str, ptr noundef @__func__.H5VLdataset_read, i32 noundef 2254, i64 noundef %174, i64 noundef %175, ptr noundef @.str.1)
  br label %177

177:                                              ; preds = %173
  br label %178

178:                                              ; preds = %177
  store i8 1, ptr %22, align 1, !tbaa !9
  %179 = load i8, ptr %22, align 1, !tbaa !9, !range !14, !noundef !15
  %180 = trunc i8 %179 to i1
  %181 = zext i1 %180 to i8
  store i8 %181, ptr %22, align 1, !tbaa !9
  br label %182

182:                                              ; preds = %178
  br label %183

183:                                              ; preds = %182
  br label %184

184:                                              ; preds = %183
  store i32 -1, ptr %21, align 4, !tbaa !7
  br label %223

185:                                              ; No predecessors!
  br label %186

186:                                              ; preds = %185
  br label %187

187:                                              ; preds = %186
  br label %188

188:                                              ; preds = %187
  br label %189

189:                                              ; preds = %188, %166
  %190 = load i64, ptr %10, align 8, !tbaa !3
  %191 = load ptr, ptr %11, align 8, !tbaa !42
  %192 = load ptr, ptr %19, align 8, !tbaa !11
  %193 = getelementptr inbounds nuw %struct.H5VL_connector_t, ptr %192, i32 0, i32 0
  %194 = load ptr, ptr %193, align 8, !tbaa !16
  %195 = load ptr, ptr %13, align 8, !tbaa !36
  %196 = load ptr, ptr %14, align 8, !tbaa !36
  %197 = load ptr, ptr %15, align 8, !tbaa !36
  %198 = load i64, ptr %16, align 8, !tbaa !3
  %199 = load ptr, ptr %17, align 8, !tbaa !42
  %200 = load ptr, ptr %18, align 8, !tbaa !42
  %201 = call i32 @H5VL__dataset_read(i64 noundef %190, ptr noundef %191, ptr noundef %194, ptr noundef %195, ptr noundef %196, ptr noundef %197, i64 noundef %198, ptr noundef %199, ptr noundef %200)
  %202 = icmp slt i32 %201, 0
  br i1 %202, label %203, label %222

203:                                              ; preds = %189
  br label %204

204:                                              ; preds = %203
  br label %205

205:                                              ; preds = %204
  br label %206

206:                                              ; preds = %205
  %207 = load i64, ptr @H5E_VOL_g, align 8, !tbaa !3
  %208 = load i64, ptr @H5E_CANTINIT_g, align 8, !tbaa !3
  %209 = call i32 (ptr, ptr, i32, i64, i64, ptr, ...) @H5E_printf_stack(ptr noundef @.str, ptr noundef @__func__.H5VLdataset_read, i32 noundef 2259, i64 noundef %207, i64 noundef %208, ptr noundef @.str.60)
  br label %210

210:                                              ; preds = %206
  br label %211

211:                                              ; preds = %210
  store i8 1, ptr %22, align 1, !tbaa !9
  %212 = load i8, ptr %22, align 1, !tbaa !9, !range !14, !noundef !15
  %213 = trunc i8 %212 to i1
  %214 = zext i1 %213 to i8
  store i8 %214, ptr %22, align 1, !tbaa !9
  br label %215

215:                                              ; preds = %211
  br label %216

216:                                              ; preds = %215
  br label %217

217:                                              ; preds = %216
  store i32 -1, ptr %21, align 4, !tbaa !7
  br label %223

218:                                              ; No predecessors!
  br label %219

219:                                              ; preds = %218
  br label %220

220:                                              ; preds = %219
  br label %221

221:                                              ; preds = %220
  br label %222

222:                                              ; preds = %221, %189
  br label %223

223:                                              ; preds = %222, %217, %184, %161, %139, %117, %95, %69, %39
  %224 = load i8, ptr %22, align 1, !tbaa !9, !range !14, !noundef !15
  %225 = trunc i8 %224 to i1
  %226 = xor i1 %225, true
  %227 = xor i1 %226, true
  %228 = zext i1 %227 to i32
  %229 = sext i32 %228 to i64
  %230 = call i64 @llvm.expect.i64(i64 %229, i64 0)
  %231 = icmp ne i64 %230, 0
  br i1 %231, label %232, label %234

232:                                              ; preds = %223
  %233 = call i32 @H5E_dump_api_stack()
  br label %234

234:                                              ; preds = %232, %223
  %235 = load i32, ptr %21, align 4, !tbaa !7
  call void @llvm.lifetime.end.p0(i64 1, ptr %22) #8
  call void @llvm.lifetime.end.p0(i64 4, ptr %21) #8
  call void @llvm.lifetime.end.p0(i64 8, ptr %20) #8
  call void @llvm.lifetime.end.p0(i64 8, ptr %19) #8
  ret i32 %235
}