; Function Attrs: nounwind uwtable
define range(i32 -1, 1) i32 @H5VLdataset_read(i64 noundef %0, ptr noundef %1, i64 noundef %2, ptr noundef %3, ptr noundef %4, ptr noundef %5, i64 noundef %6, ptr noundef %7, ptr noundef %8) local_unnamed_addr #0 {
  %10 = icmp eq ptr %1, null
  br i1 %10, label %12, label %.preheader, !prof !41

.preheader:                                       ; preds = %9
  %11 = icmp ugt i64 %0, 1
  br i1 %11, label %.lr.ph, label %._crit_edge

12:                                               ; preds = %9
  %13 = load i64, ptr @H5E_ARGS_g, align 8, !tbaa !3
  %14 = load i64, ptr @H5E_BADVALUE_g, align 8, !tbaa !3
  %15 = tail call i32 (ptr, ptr, i32, i64, i64, ptr, ...) @H5E_printf_stack(ptr noundef nonnull @.str, ptr noundef nonnull @__func__.H5VLdataset_read, i32 noundef 2241, i64 noundef %13, i64 noundef %14, ptr noundef nonnull @.str.55) #7
  br label %63

16:                                               ; preds = %.lr.ph
  %17 = add nuw i64 %.03042, 1
  %exitcond.not = icmp eq i64 %17, %0
  br i1 %exitcond.not, label %._crit_edge, label %.lr.ph, !llvm.loop !73

.lr.ph:                                           ; preds = %.preheader, %16
  %.03042 = phi i64 [ %17, %16 ], [ 1, %.preheader ]
  %18 = getelementptr inbounds nuw ptr, ptr %1, i64 %.03042
  %19 = load ptr, ptr %18, align 8, !tbaa !40
  %20 = icmp eq ptr %19, null
  br i1 %20, label %21, label %16, !prof !41

21:                                               ; preds = %.lr.ph
  %22 = load i64, ptr @H5E_ARGS_g, align 8, !tbaa !3
  %23 = load i64, ptr @H5E_BADVALUE_g, align 8, !tbaa !3
  %24 = tail call i32 (ptr, ptr, i32, i64, i64, ptr, ...) @H5E_printf_stack(ptr noundef nonnull @.str, ptr noundef nonnull @__func__.H5VLdataset_read, i32 noundef 2244, i64 noundef %22, i64 noundef %23, ptr noundef nonnull @.str.17) #7
  br label %63

._crit_edge:                                      ; preds = %16, %.preheader
  %25 = icmp eq ptr %3, null
  br i1 %25, label %26, label %30, !prof !41

26:                                               ; preds = %._crit_edge
  %27 = load i64, ptr @H5E_ARGS_g, align 8, !tbaa !3
  %28 = load i64, ptr @H5E_BADVALUE_g, align 8, !tbaa !3
  %29 = tail call i32 (ptr, ptr, i32, i64, i64, ptr, ...) @H5E_printf_stack(ptr noundef nonnull @.str, ptr noundef nonnull @__func__.H5VLdataset_read, i32 noundef 2246, i64 noundef %27, i64 noundef %28, ptr noundef nonnull @.str.56) #7
  br label %63

30:                                               ; preds = %._crit_edge
  %31 = icmp eq ptr %4, null
  br i1 %31, label %32, label %36, !prof !41

32:                                               ; preds = %30
  %33 = load i64, ptr @H5E_ARGS_g, align 8, !tbaa !3
  %34 = load i64, ptr @H5E_BADVALUE_g, align 8, !tbaa !3
  %35 = tail call i32 (ptr, ptr, i32, i64, i64, ptr, ...) @H5E_printf_stack(ptr noundef nonnull @.str, ptr noundef nonnull @__func__.H5VLdataset_read, i32 noundef 2248, i64 noundef %33, i64 noundef %34, ptr noundef nonnull @.str.57) #7
  br label %63

36:                                               ; preds = %30
  %37 = icmp eq ptr %5, null
  br i1 %37, label %38, label %42, !prof !41

38:                                               ; preds = %36
  %39 = load i64, ptr @H5E_ARGS_g, align 8, !tbaa !3
  %40 = load i64, ptr @H5E_BADVALUE_g, align 8, !tbaa !3
  %41 = tail call i32 (ptr, ptr, i32, i64, i64, ptr, ...) @H5E_printf_stack(ptr noundef nonnull @.str, ptr noundef nonnull @__func__.H5VLdataset_read, i32 noundef 2250, i64 noundef %39, i64 noundef %40, ptr noundef nonnull @.str.58) #7
  br label %63

42:                                               ; preds = %36
  %43 = icmp eq ptr %7, null
  br i1 %43, label %44, label %48, !prof !41

44:                                               ; preds = %42
  %45 = load i64, ptr @H5E_ARGS_g, align 8, !tbaa !3
  %46 = load i64, ptr @H5E_BADVALUE_g, align 8, !tbaa !3
  %47 = tail call i32 (ptr, ptr, i32, i64, i64, ptr, ...) @H5E_printf_stack(ptr noundef nonnull @.str, ptr noundef nonnull @__func__.H5VLdataset_read, i32 noundef 2252, i64 noundef %45, i64 noundef %46, ptr noundef nonnull @.str.59) #7
  br label %63

48:                                               ; preds = %42
  %49 = tail call ptr @H5I_object_verify(i64 noundef %2, i32 noundef 9) #7
  %50 = icmp eq ptr %49, null
  br i1 %50, label %51, label %55, !prof !41

51:                                               ; preds = %48
  %52 = load i64, ptr @H5E_ARGS_g, align 8, !tbaa !3
  %53 = load i64, ptr @H5E_BADTYPE_g, align 8, !tbaa !3
  %54 = tail call i32 (ptr, ptr, i32, i64, i64, ptr, ...) @H5E_printf_stack(ptr noundef nonnull @.str, ptr noundef nonnull @__func__.H5VLdataset_read, i32 noundef 2254, i64 noundef %52, i64 noundef %53, ptr noundef nonnull @.str.1) #7
  br label %63

55:                                               ; preds = %48
  %56 = load ptr, ptr %49, align 8, !tbaa !7
  %57 = tail call fastcc i32 @H5VL__dataset_read(i64 noundef %0, ptr noundef nonnull %1, ptr noundef %56, ptr noundef nonnull %3, ptr noundef nonnull %4, ptr noundef nonnull %5, i64 noundef %6, ptr noundef nonnull %7, ptr noundef %8)
  %58 = icmp slt i32 %57, 0
  br i1 %58, label %59, label %65, !prof !41

59:                                               ; preds = %55
  %60 = load i64, ptr @H5E_VOL_g, align 8, !tbaa !3
  %61 = load i64, ptr @H5E_CANTINIT_g, align 8, !tbaa !3
  %62 = tail call i32 (ptr, ptr, i32, i64, i64, ptr, ...) @H5E_printf_stack(ptr noundef nonnull @.str, ptr noundef nonnull @__func__.H5VLdataset_read, i32 noundef 2259, i64 noundef %60, i64 noundef %61, ptr noundef nonnull @.str.60) #7
  br label %63

63:                                               ; preds = %12, %21, %26, %32, %38, %44, %51, %59
  %64 = tail call i32 @H5E_dump_api_stack() #7
  br label %65

65:                                               ; preds = %55, %63
  %.02940 = phi i32 [ -1, %63 ], [ 0, %55 ]
  ret i32 %.02940
}